target datalayout = "e-m:e-p270:32:32-p271:32:32-p272:64:64-i64:64-i128:128-f80:128-n8:16:32:64-S128"
target triple = "x86_64-pc-linux-gnu"

; Function Attrs: nounwind uwtable
define internal void @intra_pred_vert(ptr noundef %0, ptr noundef %1, ptr noundef %2, i64 noundef %3) #0 {
  %5 = alloca ptr, align 8
  %6 = alloca ptr, align 8
  %7 = alloca ptr, align 8
  %8 = alloca i64, align 8
  %9 = alloca i32, align 4
  %10 = alloca i64, align 8
  store ptr %0, ptr %5, align 8, !tbaa !57
  store ptr %1, ptr %6, align 8, !tbaa !57
  store ptr %2, ptr %7, align 8, !tbaa !57
  store i64 %3, ptr %8, align 8, !tbaa !107
  call void @llvm.lifetime.start.p0(i64 4, ptr %9) #10
  call void @llvm.lifetime.start.p0(i64 8, ptr %10) #10
  %11 = load ptr, ptr %6, align 8, !tbaa !57
  %12 = getelementptr inbounds i8, ptr %11, i64 1
  %13 = load i64, ptr %12, align 1, !tbaa !27
  store i64 %13, ptr %10, align 8, !tbaa !107
  store i32 0, ptr %9, align 4, !tbaa !9
  br label %14

14:                                               ; preds = %25, %4
  %15 = load i32, ptr %9, align 4, !tbaa !9
  %16 = icmp slt i32 %15, 8
  br i1 %16, label %17, label %28

17:                                               ; preds = %14
  %18 = load i64, ptr %10, align 8, !tbaa !107
  %19 = load ptr, ptr %5, align 8, !tbaa !57
  %20 = load i32, ptr %9, align 4, !tbaa !9
  %21 = sext i32 %20 to i64
  %22 = load i64, ptr %8, align 8, !tbaa !107
  %23 = mul nsw i64 %21, %22
  %24 = getelementptr inbounds i8, ptr %19, i64 %23
  store i64 %18, ptr %24, align 8, !tbaa !107
  br label %25

25:                                               ; preds = %17
  %26 = load i32, ptr %9, align 4, !tbaa !9
  %27 = add nsw i32 %26, 1
  store i32 %27, ptr %9, align 4, !tbaa !9
  br label %14, !llvm.loop !108

28:                                               ; preds = %14
  call void @llvm.lifetime.end.p0(i64 8, ptr %10) #10
  call void @llvm.lifetime.end.p0(i64 4, ptr %9) #10
  ret void
}