; Function Attrs: nofree norecurse nosync nounwind memory(argmem: readwrite) uwtable
define internal void @intra_pred_vert(ptr noundef writeonly captures(none) %0, ptr noundef readonly captures(none) %1, ptr readnone captures(none) %2, i64 noundef %3) #9 {
  %5 = getelementptr inbounds nuw i8, ptr %1, i64 1
  %6 = load i64, ptr %5, align 1, !tbaa !24
  br label %7

7:                                                ; preds = %4, %7
  %indvars.iv = phi i64 [ 0, %4 ], [ %indvars.iv.next, %7 ]
  %8 = mul nsw i64 %3, %indvars.iv
  %9 = getelementptr inbounds i8, ptr %0, i64 %8
  store i64 %6, ptr %9, align 8, !tbaa !95
  %indvars.iv.next = add nuw nsw i64 %indvars.iv, 1
  %exitcond.not = icmp eq i64 %indvars.iv.next, 8
  br i1 %exitcond.not, label %10, label %7, !llvm.loop !96

10:                                               ; preds = %7
  ret void
}